target datalayout = "e-m:e-p270:32:32-p271:32:32-p272:64:64-i64:64-i128:128-f80:128-n8:16:32:64-S128"
target triple = "x86_64-pc-linux-gnu"

%struct._cmstransform_struct = type { i32, i32, ptr, ptr, ptr, ptr, ptr, %struct._cmsCACHE, ptr, ptr, ptr, ptr, i32, i32, %struct.cmsCIEXYZ, %struct.cmsCIEXYZ, ptr, i32, double, i32, ptr, ptr, ptr, ptr, ptr, i32, i32 }
%struct._cmsCACHE = type { [16 x i16], [16 x i16] }
%struct.cmsCIEXYZ = type { double, double, double }

; Function Attrs: nounwind uwtable
define internal ptr @UnrollXYZFloatTo16(ptr noundef %0, ptr noundef %1, ptr noundef %2, i32 noundef %3) #0 {
  %5 = alloca ptr, align 8
  %6 = alloca ptr, align 8
  %7 = alloca ptr, align 8
  %8 = alloca ptr, align 8
  %9 = alloca i32, align 4
  %10 = alloca %struct.cmsCIEXYZ, align 8
  %11 = alloca ptr, align 8
  %12 = alloca ptr, align 8
  %13 = alloca ptr, align 8
  %14 = alloca ptr, align 8
  %15 = alloca %struct.cmsCIEXYZ, align 8
  store ptr %0, ptr %6, align 8
  store ptr %1, ptr %7, align 8
  store ptr %2, ptr %8, align 8
  store i32 %3, ptr %9, align 4
  %16 = load ptr, ptr %6, align 8
  %17 = getelementptr inbounds %struct._cmstransform_struct, ptr %16, i32 0, i32 0
  %18 = load i32, ptr %17, align 8
  %19 = lshr i32 %18, 12
  %20 = and i32 %19, 1
  %21 = icmp ne i32 %20, 0
  br i1 %21, label %22, label %48

22:                                               ; preds = %4
  %23 = load ptr, ptr %8, align 8
  store ptr %23, ptr %11, align 8
  %24 = load ptr, ptr %8, align 8
  %25 = load i32, ptr %9, align 4
  %26 = zext i32 %25 to i64
  %27 = getelementptr inbounds i8, ptr %24, i64 %26
  store ptr %27, ptr %12, align 8
  %28 = load ptr, ptr %8, align 8
  %29 = load i32, ptr %9, align 4
  %30 = mul i32 %29, 2
  %31 = zext i32 %30 to i64
  %32 = getelementptr inbounds i8, ptr %28, i64 %31
  store ptr %32, ptr %13, align 8
  %33 = load ptr, ptr %11, align 8
  %34 = load float, ptr %33, align 4
  %35 = fpext float %34 to double
  %36 = getelementptr inbounds %struct.cmsCIEXYZ, ptr %10, i32 0, i32 0
  store double %35, ptr %36, align 8
  %37 = load ptr, ptr %12, align 8
  %38 = load float, ptr %37, align 4
  %39 = fpext float %38 to double
  %40 = getelementptr inbounds %struct.cmsCIEXYZ, ptr %10, i32 0, i32 1
  store double %39, ptr %40, align 8
  %41 = load ptr, ptr %13, align 8
  %42 = load float, ptr %41, align 4
  %43 = fpext float %42 to double
  %44 = getelementptr inbounds %struct.cmsCIEXYZ, ptr %10, i32 0, i32 2
  store double %43, ptr %44, align 8
  %45 = load ptr, ptr %7, align 8
  call void @cmsFloat2XYZEncoded(ptr noundef %45, ptr noundef %10)
  %46 = load ptr, ptr %8, align 8
  %47 = getelementptr inbounds i8, ptr %46, i64 4
  store ptr %47, ptr %5, align 8
  br label %77

48:                                               ; preds = %4
  %49 = load ptr, ptr %8, align 8
  store ptr %49, ptr %14, align 8
  %50 = load ptr, ptr %14, align 8
  %51 = getelementptr inbounds float, ptr %50, i64 0
  %52 = load float, ptr %51, align 4
  %53 = fpext float %52 to double
  %54 = getelementptr inbounds %struct.cmsCIEXYZ, ptr %15, i32 0, i32 0
  store double %53, ptr %54, align 8
  %55 = load ptr, ptr %14, align 8
  %56 = getelementptr inbounds float, ptr %55, i64 1
  %57 = load float, ptr %56, align 4
  %58 = fpext float %57 to double
  %59 = getelementptr inbounds %struct.cmsCIEXYZ, ptr %15, i32 0, i32 1
  store double %58, ptr %59, align 8
  %60 = load ptr, ptr %14, align 8
  %61 = getelementptr inbounds float, ptr %60, i64 2
  %62 = load float, ptr %61, align 4
  %63 = fpext float %62 to double
  %64 = getelementptr inbounds %struct.cmsCIEXYZ, ptr %15, i32 0, i32 2
  store double %63, ptr %64, align 8
  %65 = load ptr, ptr %7, align 8
  call void @cmsFloat2XYZEncoded(ptr noundef %65, ptr noundef %15)
  %66 = load ptr, ptr %6, align 8
  %67 = getelementptr inbounds %struct._cmstransform_struct, ptr %66, i32 0, i32 0
  %68 = load i32, ptr %67, align 8
  %69 = lshr i32 %68, 7
  %70 = and i32 %69, 7
  %71 = zext i32 %70 to i64
  %72 = mul i64 %71, 4
  %73 = add i64 12, %72
  %74 = load ptr, ptr %8, align 8
  %75 = getelementptr inbounds i8, ptr %74, i64 %73
  store ptr %75, ptr %8, align 8
  %76 = load ptr, ptr %8, align 8
  store ptr %76, ptr %5, align 8
  br label %77

77:                                               ; preds = %48, %22
  %78 = load ptr, ptr %5, align 8
  ret ptr %78
}