; Function Attrs: nounwind uwtable
define internal nonnull ptr @UnrollXYZFloatTo16(ptr nocapture noundef readonly %0, ptr noundef %1, ptr noundef readonly %2, i32 noundef %3) #0 {
  %5 = alloca %struct.cmsCIEXYZ, align 16
  %6 = alloca %struct.cmsCIEXYZ, align 16
  %7 = load i32, ptr %0, align 8
  %8 = and i32 %7, 4096
  %.not = icmp eq i32 %8, 0
  br i1 %.not, label %24, label %9

9:                                                ; preds = %4
  %10 = zext i32 %3 to i64
  %11 = getelementptr inbounds i8, ptr %2, i64 %10
  %12 = shl i32 %3, 1
  %13 = zext i32 %12 to i64
  %14 = getelementptr inbounds i8, ptr %2, i64 %13
  %15 = load float, ptr %2, align 4
  %16 = load float, ptr %11, align 4
  %17 = insertelement <2 x float> poison, float %15, i64 0
  %18 = insertelement <2 x float> %17, float %16, i64 1
  %19 = fpext <2 x float> %18 to <2 x double>
  store <2 x double> %19, ptr %5, align 16
  %20 = load float, ptr %14, align 4
  %21 = fpext float %20 to double
  %22 = getelementptr inbounds i8, ptr %5, i64 16
  store double %21, ptr %22, align 16
  call void @cmsFloat2XYZEncoded(ptr noundef %1, ptr noundef nonnull %5) #11
  %23 = getelementptr inbounds i8, ptr %2, i64 4
  br label %37

24:                                               ; preds = %4
  %25 = load <2 x float>, ptr %2, align 4
  %26 = fpext <2 x float> %25 to <2 x double>
  store <2 x double> %26, ptr %6, align 16
  %27 = getelementptr inbounds i8, ptr %2, i64 8
  %28 = load float, ptr %27, align 4
  %29 = fpext float %28 to double
  %30 = getelementptr inbounds i8, ptr %6, i64 16
  store double %29, ptr %30, align 16
  call void @cmsFloat2XYZEncoded(ptr noundef %1, ptr noundef nonnull %6) #11
  %31 = load i32, ptr %0, align 8
  %32 = lshr i32 %31, 5
  %33 = and i32 %32, 28
  %34 = zext nneg i32 %33 to i64
  %35 = getelementptr inbounds i8, ptr %2, i64 %34
  %36 = getelementptr inbounds i8, ptr %35, i64 12
  br label %37

37:                                               ; preds = %24, %9
  %.0 = phi ptr [ %23, %9 ], [ %36, %24 ]
  ret ptr %.0
}